(S'http://web3.unt.edu/tamswebapp/'
p1
V    TAMS  2017  Application      TAMS  2017  Application Deadline:  February 25, 2017  (Early decision Dec 10, 2016 )  Open Existing Application  Enter username and password  E-mail  Password     I forgot my password...   Create New Application  Enter your (non-High School) e-mail address and choose a password.  High School e-mail addresses are not allowed.  E-mail Address  Repeat E-mail  Password  Repeat Password         
p2
t.