(S'http://www.unt.edu/chec/'
p1
V     Collin Higher Education Center                     Search     Search this site:             Skip to content   MyUNT EagleConnect Blackboard People & Departments Maps Calendars Giving to UNT                                    Collin Higher Education Center                        Home Getting Started Degree Programs Courses Student Resources For Faculty Location Contact Us                                          The eagle has landed in Collin County!Residents of Collin County and the surrounding areas now have the option of taking courses from UNT at the Collin Higher Education Center (CHEC) conveniently located just off US 75 (Central Expressway) in McKinney, Texas.  At this beautiful, state-of-the-art facility, UNT offers undergraduate courses in Alternative Dispute Resolution, Management, Marketing, and Sociology.  Graduate courses are also available in Educational Administration and Higher Education. Learn more about how you can take courses and even earn a degree closer to home!                                 Contact Us:      University of North Texas     1155 Union Circle #311277 Denton, TX 76203-5017 USA  Voice: 940-565-2000    Visit Us: 3452 Spur 399, McKinney, TX 75069 Click here for hours  https://chec.unt.edu/              Email us: Have questions on content? Please contact us. chec@unt.edu     Technical problems: Have questions concerning how the site runs? reiner@unt.edu               UNT System:  UNT Home UNT System UNT Dallas UNT Health Science Center               Site last updated on September 5, 2016  Disclaimer |        AA/EOE/ADA |        Privacy Statement |        Web Accessibility Policy |        State of Texas Online |        Emergency Preparedness                 
p2
t.