(S'http://baas.hps.unt.edu/rss.xml'
p1
V   Bachelor of Applied Arts & Sciences http://baas.hps.unt.edu  en  No matter where you started, we'll help you finish faster... http://baas.hps.unt.edu/content/no-matter-where-you-started-well-help-you-finish-faster <p><img src="/sites/default/files/images/flying-mortar-boards-edit.jpg" alt="Graduate - Let the Mortar Boards Fly!" width="900" height="200" /></p> Fri, 20 Nov 2009 15:15:19 +0000 rk0043 21 at http://baas.hps.unt.edu    
p2
t.