(S'http://biology.unt.edu/course-recommendations-doctoral-program-biochemistry-and-molecular-biology'
p1
V               Course recommendations for Doctoral program in Biochemistry and Molecular Biology | Department of Biological Sciences                                Skip to main content     MyUNT Blackboard Find People at UNT View Maps of UNT Give to UNT   Apply online       College of Science Department of Biological Sciences                HomeUndergraduateBiology ProgramsBiochemistry ProgramsEcology ProgramMedical Laboratory Sciences ProgramForensic Science ProgramAdmissionsCareer InformationFinancial SupportGraduateBiology DegreesBiochemistry and Molecular Biology DegreesEnvironmental Science DegreesAdmissionsFinancial SupportGraduate Student FormsHelpful WebsitesResearchInstitutes and CentersResearch ClustersFacilitiesUndergraduate Research OpportunitiesAdvisingDegree AuditsDegree PlansGraduation CheckHealth Profession AdvisingGraduate Student FormsAbout UsKey PersonnelHistory of the DepartmentPeopleFacultyLab SupervisorsLecture and Research FacultyStaffNewsEventsJob PostingBIOsphere - The latest updates from UNT Biology!Department of Biological Sciences Seminar Series            Home Course recommendations for Doctoral program in Biochemistry and Molecular Biology     Course recommendations for Doctoral program in Biochemistry and Molecular Biology     Recommended Courses for Ph.D. in BMB As a minimum, students are required to take one course from each category below plus two additional courses from any of the categories below. Additional courses may be suggested by the student's committee based on background and scope of research program.   Biochemistry       Biochem I (BIOC5540)       Biochem II (BIOC5550)    Advanced Metabolism (BIOC6610)    Protein Structure & Function (BIOL6630)    Cellular Signal Transduction and Biochemical Regulation (BIOC6640)    Plant Biochemistry and Biotechnology (BIOC6650)    Microbial Biochemistry and Biotechnology (BIOL 6xxx; new course offering)   Molecular Genetics       Molecular Biology (BIOL5340)       Eukarotic Genetics (BIOL5560)       Microbial Genetics (BIOL5800)     Topics course: (Advanced Microbiology (BIOL5505) (change to 6xxxx)     Advanced Molecular Biology (BIOL6600) (recommended for tracks that have stronger emphasis on   molecular biology)     Medical Genetics (BIOL6xxx) (currently offered by Jag)   Cell Biology and Physiology          Prokaryotic Diversity and Physiology (BIOL5501/5502)          Plant Physiology (BIOL5503)          Adv. Cell Biology (BIOL/ BIOC6620)          Signaling Mechanism in Plants (BIOL 6xxx) (currently offered as a topics course)          Mol Cell Physiol: Response to Stress (in animals) (BIOL6xxx) currently offered as a Topics course)          Plant Interaction with the Environment (currently offered as topics; Change to 6xxx)          Developmental Biology (currently offered by von Herbing)   Tools       BioStatistics (BIOL5130/5140)       Professional Development/Grant writing (BIOL5xxx; new course-Ron Mittler?)       McDaniel's  course      Bioinstrumentation (BIOC6200)      Advanced techniques in Systems Biology (BIOL 6xxx) (New course-Shulaev)      Bioinformatics and Comparative Genomics (BIOL6xxx; new course)      Microscopy (BIOL6xxx) New course-Wright (will be offered beginning Spring 2012))                      Advanced Computational Life Science (BIOL xxxx; new course)                  Thinking about UNT? It's easy to apply online. Join us and discover why we're the choice of over 37,000 students. Apply now             Contact Us                                         (940) 565-3591 biology@unt.edu Send Us Mail                 1155 Union Circle #305220                 Denton, Texas 76203-5017                                   Fax: (940) 565-3821                                                                                                          College of Science View departments Get advising University of North Texas Explore our degrees Take a tour Get financial aid Apply online Find a person Register for classes Follow UNT on social media         Disclaimer AA/EOE/ADA Privacy Statement Electronic Accessibility State of Texas Online Emergency Preparedness THECB Online Resume System Student Consumer Information UNT Compliance Hotline Governors Committee on People with Disabilities Texas Veterans Portal UNT Home        
p2
t.