(S'http://english.unt.edu/node/888?cta=hero'
p1
V               Fall 2017 Undergraduate Courses | Department of English                                Skip to main content     MyUNT Blackboard Find People at UNT View Maps of UNT Give to UNT   Apply online       College of Liberal Arts & Social Sciences Department of English                HomePeopleFacultyStaffUndergraduateDescription of the MajorDescription of the MinorAdvising and Degree PlansCourse DescriptionsHistorical Period CoursesHonors College Capstone ThesisUndergraduate ScholarshipsCompositionSigma Tau DeltaNorth Texas ReviewInternshipsGraduateApplying to the Graduate ProgramCourse RequirementsCourse DescriptionsJob OpportunitiesRecent Theses and DissertationsGraduate Scholarships for Continuing StudentsHandbookFirst Year Writing Resources @ UNTCreative WritingThe Graduate ProgramCreative Writing FacultyProspective StudentsCurrent StudentsFunding OpportunitiesUNT Rilke PrizeVoertman AAP PrizeVisiting Writers SeriesPrevious Visiting WritersAmerican Literary ReviewSITNALRWhy English?The Value of Literary Studies and the HumanitiesCalendar            Home Fall 2017 Undergraduate Courses     Fall 2017 Undergraduate Courses                        Thinking about UNT? It's easy to apply online. Join us and discover why we're the choice of over 37,000 students. Apply now             Visit Us                 Auditorium Building 112 Follow Us FacebookTwitter   College of Liberal Arts & Social Sciences View departments Get advising University of North Texas Explore our degrees Take a tour Get financial aid Apply online Find a person Register for classes Follow UNT on social media         Disclaimer AA/EOE/ADA Privacy Statement Electronic Accessibility State of Texas Online Emergency Preparedness THECB Online Resume System Student Consumer Information UNT Compliance Hotline Governors Committee on People with Disabilities Texas Veterans Portal UNT Home        
p2
t.