(S'http://environmentalscience.unt.edu/'
p1
V              Environmental Science                               Skip to main content     MyUNT Blackboard Find People at UNT View Maps of UNT Give to UNT   Apply online       College of Science Environmental Science                HomeAbout UsProspective StudentsCurrent StudentsCalendarNewsFaculty                                    Environmental Science                                                                Explore human-environmental interactions                               Learn about our programs                      We're Environmental Science.                          Foundational disciplines within the Environmental Science Graduate Degree program include chemistry, biology, ecology, geology, anthropology, philosophy, and geography, with an increasing emphasis on humanistic cultural practices and perspectives.            Research Areas The Environmental Science Program specializes in a diverse array of research areas with faculty from multiple departments Learn more     Prospective Students The MS degree is designed to help students develop an interdisciplinary perspective on environmental science research Learn more     Elm Fork Education Elm Fork Education Center is the public education branch of the University of North Texas\u2019s Environmental Programs Learn more        Posted on June 22, 2016Monica Garcia-Colin ENSC Masters Thesis Defense Posted on July 30, 2013Jessica Beckham, PhD student, and Dr. Sam Atkinson are working on a research project with Texas Parks and Wildlife on Bumble Bee Species in North TexasPosted on May 1, 2013Heather Perry (PhD Candidate, Biology) Wins JKG Silvey Scholarship for Ecological ResearchPosted on May 1, 2013Undergraduate Students Working with Dr. Kennedy Awarded NSF REU\u2019s to Study Aquatic Ecology in Montana & Costa RicaPosted on May 1, 2013Ana Ferrari-Hoeinghaus (ES PhD student) is awarded a Student Research Grant from the Society of Wetland Scientists Posted on April 26, 2013Luke Driver, ES PhD Student, Wins Best Oral Presentation at Biology Graduate Student Research DayPosted on April 24, 2013Environmental Science PhD Program to Add New Concentration in Science Education Research    Read more news            Jun 30   Final Day to Submit Thesis/Dissertation for Summer Graduation   Jul 07   Final Submissions DUE for Summer graduation      See more upcoming events          Contact Us                                         940-565-2694 Denice.Gallagher@unt.edu; Rebecca.Petrusky@unt.edu Visit Us                 1704 W. Mulberry  Room 215 -- Denton, TX 76201 Send Us Mail                 1155 Union Circle# 310559                 Denton, TX 76203-5017                                   Fax: 940-565-4297                                                                                                          College of Science View departments Get advising University of North Texas Explore our degrees Take a tour Get financial aid Apply online Find a person Register for classes Follow UNT on social media         Disclaimer AA/EOE/ADA Privacy Statement Electronic Accessibility State of Texas Online Emergency Preparedness THECB Online Resume System Student Consumer Information UNT Compliance Hotline Governors Committee on People with Disabilities Texas Veterans Portal UNT Home        
p2
t.