(S'http://history.unt.edu/people/all'
p1
V             People | Department of History                               Skip to main content     MyUNT Blackboard Find People at UNT View Maps of UNT Give to UNT   Apply online       College of Liberal Arts & Social Sciences Department of History                HomeAbout UsUndergraduateScholarships & Financial AidUndergraduate AdvisingWeb Based CoursesMinorsAfrican American StudiesAsian StudiesClassical StudiesJewish StudiesMexican American StudiesOral History ProgramGraduateFacilitiesFundingMasters ProgramPH.D. ProgramFacultyAssociate ProfessorAssistant ProfessorLecturerAdjunct ProfessorProfessorFormsCalendarResourcesCareers in HistoryDepartmentDepartment HandbookHelp CenterLibraryScheduleAlumniMilitary History of the WestMilitary History CenterEvents            Home People      Faculty  Associate ProfessorCalderon, Roberto Fuhrmann, Christopher J. Hagler, Harland Mendoza, Alex Pomerleau, Clark Seligmann, Gus .L. Stockdale, Nancy Velikanova, Olga Wallach, Jennifer Jensen  Assistant ProfessorImy, Kate Mendiola Garcia, Sandra Torget, Andrew Wise, Michael  LecturerCox, Graham Liles, Debbie Mitchener, D. Keith Moran, Rachel Pollack, Eunice G. Roberts, Walter Welch, Courtney  Adjunct ProfessorDeCarvalho, Roy J. Duch, Anna Morrow, Kenneth  ProfessorCampbell, Mike Chet, Guy Golden, Richard M. Hilliard, Constance B. Leggiere, Michael V. Lowe, Richard McCaslin, Richard B. Mierzejewski, Alfred Morris, Marilyn Moye, J. Todd Smith, F. Todd Tanner, Harold Turner, Elizabeth Hayes Wawro, Geoffrey D. W.         People          Roberto Calderon   Associate Professor   Roberto.Calderon@unt.edu   Office: WH 243   (940) 369-8929           Randolph B. Campbell   Regents' Professor   mike@unt.edu   Office: WH 260   (940) 565-3402           Guy Chet   Professor   guychet@unt.edu   Office: WH 235   (940) 369-8927           Graham Cox   Lecturer   graham.cox@unt.edu   Office: WH 255   (940) 565-4526           Roy J. deCarvalho   Adjunct Professor   roy@unt.edu   Office: 3rd rock from the Sun              Anna Duch   Adjunct Professor   Anna.Duch@unt.edu   Office: WH 241   940-891-6789           Christopher J. Fuhrmann   Associate Professor   cfuhrmann@unt.edu   Office: WH 264   (940) 565-4527           Richard M. Golden   Professor, Director of Jewish and Israel Studies   rmg@unt.edu   Office: GAB 460   (940) 369-8933           Harland Hagler   Associate Professor   hhagler@unt.edu   Office: WH 246   (940) 565-3394           Constance B. Hilliard   Professor   connie@unt.edu   Office: WH 245   (940) 565-4972           Kate Imy   Assistant Professor   kate.imy@unt.edu   Office: WH 266   (940) 565-4524           Michael V. Leggiere   Professor, Deputy Director of the Military History Center   michael.leggiere@unt.edu   Office: WH 240   (940) 565-2690           Debbie Liles   Lecturer, Undergraduate Advisor   debbie.liles@unt.edu   Office: WH 229   (940) 565-4867           Richard Lowe   Regents' Professor   lowe@unt.edu   Office: WH 244   (940) 369-8931           Richard B. McCaslin   Professor   mccaslin@unt.edu   Office: WH 239   (940) 369-8182           Sandra Mendiola-Garcia   Assistant Professor   sandra.mendiolagarcia@unt.edu   Office: 263   (940) 565-3392           Alex Mendoza   Associate Professor   amendoza@unt.edu   Office: WH 232   (940) 369-7241           Alfred Mierzejewski   Professor   ACMierzeje@aol.com   Office: WH 236   (940) 369-8928           D. Keith Mitchener   Lecturer, Undergraduate Advisor   donald.mitchener@unt.edu   Office: WH 228   (940) 565-4215           Rachel Moran   Lecturer   Rachel.Moran@unt.edu   Office: WH 248   (940) 369-5120           Marilyn Morris   Professor   mmorris@unt.edu   Office: WH 265   (940) 565-4216           Kenneth Morrow   Adjunct Professor    kenneth.morrow@unt.edu       940-891-6789           J. Todd Moye   Professor   moye@unt.edu   Office: WH 257   (940) 565-4523           Eunice G. Pollack   Lecturer   epollack@unt.edu   Office: WH 242   (940) 891-6780           Clark Pomerleau   Associate Professor   Clark.Pomerleau@unt.edu   Office: WH 234   (940) 565-4214           Walter Roberts   Lecturer, Graduate Advisor   walter.roberts@unt.edu   Office: WH 227   (940) 565-2489           G.L. Seligmann, Jr.   Associate Professor   gus@unt.edu   Office: WH 253   (940) 565-3399           F. Todd Smith   Professor   ftsmith@unt.edu   Office: WH 254   (940) 565-4525           Nancy Stockdale   Associate Professor   stockdale@unt.edu   Office: WH 238   (940) 565-4209           Harold Tanner   Professor, Department Chair   htanner@unt.edu   Office: WH 225B   (940) 565-4207           Andrew Torget   Assistant Professor   torget@unt.edu   Office: WH 258   (940) 369-5116           Elizabeth Hayes Turner   Professor   turner@unt.edu   Office: 3rd rock from the Sun              Olga Velikanova   Associate Professor   velikanova@unt.edu   Office: WH 237   (940) 369-8114           Jennifer Jensen Wallach   Associate Professor   jennifer.wallach@unt.edu   Office: WH 247   (940) 565-3395           Geoffrey D. W. Wawro   Professor, Director of the Military History Center   wawro@unt.edu   Office: WH 341   (940) 891-6940           Courtney Welch   Lecturer   Courtney.Welch@unt.edu   Office: WH 256   (940) 369-3393           Michael Wise   Assistant Professor   michael.wise@unt.edu   Office: 259   (940) 891-6774                   Thinking about UNT? It's easy to apply online. Join us and discover why we're the choice of over 37,000 students. Apply now             Contact Us                                         940-565-2288 history@unt.edu Visit Us                 Wooten Hall 225 Send Us Mail                 1155 Union Circle #310650                 Denton, Texas 76203                                   Fax: 940-369-8838                                                                                                                            College of Liberal Arts & Social Sciences View departments Get advising University of North Texas Explore our degrees Take a tour Get financial aid Apply online Find a person Register for classes Follow UNT on social media         Disclaimer AA/EOE/ADA Privacy Statement Electronic Accessibility State of Texas Online Emergency Preparedness THECB Online Resume System Student Consumer Information UNT Compliance Hotline Governors Committee on People with Disabilities Texas Veterans Portal UNT Home        
p2
t.