(S'http://mediaarts.unt.edu/media-arts-glance?cta=hero'
p1
V               Media Arts At-A-Glance | Department of Media Arts                                Skip to main content     MyUNT Blackboard Find People at UNT View Maps of UNT Give to UNT   Apply online       College of Liberal Arts & Social Sciences Department of Media Arts                HomeAbout UsWho We AreKNTUntTVChair's WelcomePeopleFacultyStaffMedia Arts Executive BoardUndergraduate StudiesDegrees in Media ArtsCatalog & Class ScheduleCertificate ProgramsInternshipsScholarshipsUndergraduate FormsUndergraduate FAQGraduate StudiesMaster of Fine ArtsMaster of ArtsGraduate AssistantshipsForms & ApplicationsGraduate FAQNewsEventsContactEquipment Checkout            Home Media Arts At-A-Glance     Media Arts At-A-Glance    Media Arts IS:  Passionate Storytelling    Intellectually Challenging    Hands-on Creativity    Participatory Learning    Peer Collaboration   The Future    Find out more about WHO WE ARE.                   Thinking about UNT? It's easy to apply online. Join us and discover why we're the choice of over 37,000 students. Apply now             Contact Us                                         940-565-2537 mediaarts@unt.edu Visit Us                 Radio, TV, Film & Performing Arts Building (RTFP) 262 Send Us Mail                 1155 Union Circle #310589                 Denton, TX 76203-5017                                   Fax: 940-369-7838                                                                                                                                        College of Liberal Arts & Social Sciences View departments Get advising University of North Texas Explore our degrees Take a tour Get financial aid Apply online Find a person Register for classes Follow UNT on social media         Disclaimer AA/EOE/ADA Privacy Statement Electronic Accessibility State of Texas Online Emergency Preparedness THECB Online Resume System Student Consumer Information UNT Compliance Hotline Governors Committee on People with Disabilities Texas Veterans Portal UNT Home        
p2
t.