(S'http://mediaarts.unt.edu/touring-media-arts-department?cta=section-highlight'
p1
V               Touring the Media Arts Department | Department of Media Arts                                Skip to main content     MyUNT Blackboard Find People at UNT View Maps of UNT Give to UNT   Apply online       College of Liberal Arts & Social Sciences Department of Media Arts                HomeAbout UsWho We AreKNTUntTVChair's WelcomePeopleFacultyStaffMedia Arts Executive BoardUndergraduate StudiesDegrees in Media ArtsCatalog & Class ScheduleCertificate ProgramsInternshipsScholarshipsUndergraduate FormsUndergraduate FAQGraduate StudiesMaster of Fine ArtsMaster of ArtsGraduate AssistantshipsForms & ApplicationsGraduate FAQNewsEventsContactEquipment Checkout            Home Touring the Media Arts Department     Touring the Media Arts Department    We'll be glad to schedule a tour for you. The Department tours are offered only Monday through Friday from 10:00 a.m. to 3:00 p.m.. We do not offer tours when school is not in session. Send an email to mediaarts-tours@unt.edu. Include what days and times you have in mind to visit the department. Please include three times that will work for you during the day that you plan to visit and how many students you would like to bring with you.                 Thinking about UNT? It's easy to apply online. Join us and discover why we're the choice of over 37,000 students. Apply now             Contact Us                                         940-565-2537 mediaarts@unt.edu Visit Us                 Radio, TV, Film & Performing Arts Building (RTFP) 262 Send Us Mail                 1155 Union Circle #310589                 Denton, TX 76203-5017                                   Fax: 940-369-7838                                                                                                                                        College of Liberal Arts & Social Sciences View departments Get advising University of North Texas Explore our degrees Take a tour Get financial aid Apply online Find a person Register for classes Follow UNT on social media         Disclaimer AA/EOE/ADA Privacy Statement Electronic Accessibility State of Texas Online Emergency Preparedness THECB Online Resume System Student Consumer Information UNT Compliance Hotline Governors Committee on People with Disabilities Texas Veterans Portal UNT Home        
p2
t.