(S'http://www.peacestudies.unt.edu/'
p1
V              Peace Studies                               Skip to main content     MyUNT Blackboard Find People at UNT View Maps of UNT Give to UNT   Apply online       College of Liberal Arts & Social Sciences Peace Studies                HomeAboutOptionsBA in Peace StudiesCertificateMinor in Peace StudiesCoursesScholarshipsSpeakersLinksProjectsNewsEventsContact                                    Study peace                                                                The program has now grown into a popular area of studies in political science                               Learn about our program                      We're Peace Studies.                          Established in 2000, the Peace Studies Program at the University Of North Texas is the only program of its kind in the southern and southwestern United States that offers a certificate program, a minor, and the equivalent of a major in Peace Studies.            Scholarships The Peace Studies Program offers four different scholarship opportunities for students Learn more     Speakers The Peace Studies Program has sponsored an annual lecture series designed to expose the public to expert insights Learn more     Options An interdisciplinary major or minor in this growing field allows students to adjust their course work Learn more        Posted on January 7, 2016Peace Studies Course Listings for Summer and Fall 2017 now available    Read more news               College of Liberal Arts & Social Sciences View departments Get advising University of North Texas Explore our degrees Take a tour Get financial aid Apply online Find a person Register for classes Follow UNT on social media         Disclaimer AA/EOE/ADA Privacy Statement Electronic Accessibility State of Texas Online Emergency Preparedness THECB Online Resume System Student Consumer Information UNT Compliance Hotline Governors Committee on People with Disabilities Texas Veterans Portal UNT Home        
p2
t.