(S'http://www.cse.unt.edu/site/rss.xml'
p1
V   Computer Science and Engineering -  http://www.cse.unt.edu/site  en  We have launched a new CSE department website http://www.cse.unt.edu/site/node/694 <p>This site will remain available for archival purposes, but the information found here may be out of date and inaccurate. We have launched a new Computer Science and Engineering website. Please visit our current website here: <a href="http://computerscience.engineering.unt.edu">http://computerscience.engineering.unt.edu</a></p>  Tue, 30 Aug 2016 10:06:17 -0500 mkernan 694 at http://www.cse.unt.edu/site   CSE NACLO student qualifies for International Linguistics Olympiad in India http://www.cse.unt.edu/site/node/691 <p><img src="/images/WyattReeves.jpg" hspace="8" align="right" width="200" />   The Human Intelligence and language Technologies (<a target="_blank" href="http://hilt.cse.unt.edu/">H<i>i</i>LT</a>)  Lab hosted the invitational round of NACLO, <a target="_blank" href="http://hilt.cse.unt.edu/naclo.html">North American Computational Linguistics Olympiad</a> on March 10, 2016. <a target="_blank" href="http://www.cse.unt.edu/site/node/679">Six high school students</a> who participated in the open round of NACLO at the UNT Department of Computer Science and Engineering on January 28, 2016 scored in the top 10% of the U.S. and were invited to this second round. One of those six students, <b>Wyatt Reeves</b>, a senior from R.L. Paschal High School in Fort Worth, has qualified as a U.S.A team member for the <a target="_blank" href="http://iol14.plo-in.org/">International Linguistics Olympiad</a> to be held July 25-29, 2016 in Mysore, India. This is the first time a student from the UNT NACLO location has qualified for this international event.</p>   <p>Wyatt has been auditing the Linguistics class at Paschal and each year the school\u2019s Linguistics Club enters a competitive team in the NACLO competition, hosted by the H<i>i</i>LT Lab in the UNT Department of Computer Science and Engineering. As part of the international team, Wyatt will be training online and via Skype with his new team members. Congratulations to Wyatt on his achievement and good luck to him at the International Linguistics Olympiad!</p>  <p>More information about the H<i>i</i>LT Lab, directed by <a target="_blank" href="http://www.cse.unt.edu/~Nielsen/">Dr. Rodney Nielsen</a>, is available at <a target="_blank" href="http://hilt.cse.unt.edu">http://hilt.cse.unt.edu</a>.</p> <p><a href="http://www.cse.unt.edu/site/node/691">read more</a></p> Wed, 25 May 2016 12:24:55 -0500 donr 691 at http://www.cse.unt.edu/site   Congratulations to Spring 2016 Graduates from the Department of Computer Science and Engineering http://www.cse.unt.edu/site/node/692 <img align="right" src="/images/graduation300.jpg" width="100" /> Congratulations go to the Computer Science and Engineering Fall Graduates.  A full list of our graduates can be seen <a href="/site/node/690">here</a>. Mon, 23 May 2016 15:00:07 -0500 donr 692 at http://www.cse.unt.edu/site   CSE recognizes Outstanding Students in 2015-2016 http://www.cse.unt.edu/site/node/689 <p><img src="/gallery/events/2016AwardsLuncheon/2016AwardsLuncheon10.jpg" align="right" width="250" hspace="8" /> The Department of Computer Science and Engineering recognized our Outstanding CSE Students at an awards lunch held at the University Student Union on May 3, 2016. Chair Dr. Barrett Bryant welcomed students and then faculty members presented students with awards. On the right, Dr. Yan Huang announced the CRA-W Graduate Cohort. (L-R) Zahra Sarabi, Andreea Godea, Nishitha Guntakandla, Parisa Kaghazgaran, Dr. Huang, Natalie Parde, Shuwen Liang, Alakananda Vempala. To see more of our CSE Outstanding Students, please see this <a href="http://www.cse.unt.edu/site/node/687">media gallery page</a>.</p> Tue, 10 May 2016 21:41:27 -0500 donr 689 at http://www.cse.unt.edu/site   CSE Undergraduate Students present capstone projects at Design Day on April 29 http://www.cse.unt.edu/site/node/686 <p><img align="right" hspace="8" width="300" src="http://www.cse.unt.edu/people/StudentNewsletters/2013Apr/DesignDayLogo.jpg"> Undergraduate students in capstone classes from the Department of Computer Science and Engineering will present their projects at the UNT College of Engineering&rsquo;s <a target="_blank" href="http://engineering.unt.edu/senior-design-day-2016">Design Day</a> on Friday, April 29, 2016.  CSE students will present their project posters in the hallway in front of the CSE Department from 9 am to 12 noon. Following lunch, Computer Engineering projects for CSCE 4915 Computer Engineering Design II will be presented in B190 at 1 pm.  Computer Science projects for CSCE 4901 Software Development Capstone will be presented in D215 at 2 pm. Information Technology projects for CSCE 4925 Information Technology Capstone II will be presented in D215 at 1 pm. More information about each project is <a href="/images/CSE- ITBrochureFINAL.pdf" target="_blank">HERE</a>.  Everyone is invited to attend!</p> <p><a href="http://www.cse.unt.edu/site/node/686">read more</a></p> Wed, 27 Apr 2016 13:35:55 -0500 donr 686 at http://www.cse.unt.edu/site   April CSE Student and Alumni Newsletters http://www.cse.unt.edu/site/node/685 <p><img align="right" src="http://www.cse.unt.edu/people/StudentNewsletters/2008-02_NewsletterThumbnail.jpg" hspace="10" />  The April CSE Department newsletters have been sent. The CSE Student newsletter is online <a target="_blank" href="http://www.cse.unt.edu/people/StudentNewsletters/2016_Apr_StudentEmailNewsletter.html">HERE</a> and the CSE Alumni Newsletter is online <a target="_blank" href="http://www.cse.unt.edu/people/AlumniNewsletters/2016_Apr_AlumniEmailNewsletter.html">HERE</a>.</p> Wed, 27 Apr 2016 13:28:44 -0500 donr 685 at http://www.cse.unt.edu/site   CSE M.S. Student wins People\u2019s Choice Award in Three Minute Thesis Competition  http://www.cse.unt.edu/site/node/684 <p><img align="right" hspace="8" src="http://www.cse.unt.edu/people/StudentNewsletters/2016Apr/t_RajasekharOppong.jpg" />   Congratulations to <b>Rajasekhar Ganduri</b> on winning the People\u2019s Choice award at the UNT Toulouse Graduate School\u2019s Three Minute Thesis (3MT&reg;) competition for M.S. students on April 9, 2016! His prize for winning the award was $1,000.  After several preliminary contests, ten finalists emerged to explain their thesis to a general audience in only three minutes.  The finalists presented their thesis research methods, findings, and its significance in non-technical language. Rajasekhar\u2019s presentation was \u201cNetwork Security by YOU.\u201d Rajasekhar is a student of Dr. Ram Dantu, CSE Professor and Director of the Center for Information and Computer Security.</p>  <p>In the picture on the right, Rajasekhar holds the People's Choice Award certificate presented by Dr. Joseph Oppong, Professor of Geography and Associate Dean for Research and Professional Development at UNT's Toulouse Graduate School.</p> <p><a href="http://www.cse.unt.edu/site/node/684">read more</a></p> Thu, 21 Apr 2016 17:13:11 -0500 donr 684 at http://www.cse.unt.edu/site   CSE hosts Summer Camps for students in grades 8-12 http://www.cse.unt.edu/site/node/683 <p><img src="http://www.cse.unt.edu/images/2014RobocampLogos.jpg" width="300" align="right" hspace="5" /> Registration is now open for summer camp programs hosted by the UNT Department of Computer Science and Engineering to introduce young women and young men entering the 8 thru 12 grades to Robotics, Game Development, Mobile Apps and Computer Science and Engineering. See the <a target="_blank" href="http://www.cse.unt.edu/people/StudentNewsletters/2016Apr/RobocampFlyer2016.pdf">camp schedule</a>.</p>  <p>AppCamp/GameCamp teaches students about Mobile App development for Android devices using AppInventor \u2013 a tool developed by Google and supported by MIT. Students will build a number of apps using various sensor technologies found in most smartphones and tablets. Students will also use GameMaker to learn about building a variety of styles of Video Games for PC Platforms.  Scholarships for eligible students are provided by the Texas Workforce Commission (TWC), the Texas Coordinating Board for Higher Education (CB), the National Convergence Technology Center (CTC) and the Braid program from the Computing Research Association.</p>  <p>Further information can be found at www.cse.unt.edu/robocamp. Registration will continue until all camps are full. Seats and scholarships are available on a first-come, first-served basis.</p> <p><a href="http://www.cse.unt.edu/site/node/683">read more</a></p> Tue, 19 Apr 2016 14:51:26 -0500 donr 683 at http://www.cse.unt.edu/site   Distinguished Speaker Seminar on April 22 http://www.cse.unt.edu/site/node/682 <p><img align="right" hspace="8" src="/seminars/JunYang.jpg" /> The Department of Computer Science and Engineering welcomes <a target="_blank"  href="https://users.cs.duke.edu/~junyang/">Dr. Jun Yang</a>, Professor of Computer Science at Duke University, on Friday, April 22, 2016 as our final Distinguished Speaker in Spring 2016. His presentation will be on <a target="_blank" href="/seminars/JunYan_announcement.pdf">Cumulon: Simplifying Matrix-Based Data Analytics in the Cloud</a>.</p>  <p>Dr. Yang received his Ph.D. from Stanford University in 2001. He is broadly interested in databases and data-intensive systems. His current research interests lie in making data analysis easier and more scalable for scientists, statisticians, and journalists.</p>  <p>His presentation will be held at 11:30 am in NTDP F223. Everyone is invited to attend!</p> Mon, 18 Apr 2016 14:25:59 -0500 donr 682 at http://www.cse.unt.edu/site   Outstanding CSE Students http://www.cse.unt.edu/site/node/681 <p><img src="/images/cse-logo400.gif" width="250" hspace="10" align="right" />  The Department of Computer Science and Engineering congratulates these outstanding CSE students:</p>  <p>Outstanding Doctoral Student in Computer Science and Engineering \u2013 <b>Garima Bajwa</b><br /> Outstanding Master\u2019s Student in Computer Engineering \u2013 <b>Nagaraju Mukka</b><br /> Outstanding Master\u2019s Student in Computer Science \u2013 <b>Rajendar Mudam</b><br /> Outstanding Senior in Computer Engineering \u2013 <b>Thomas Kanabay</b><br /> Outstanding Senior in Computer Science \u2013 <b>Daniel Jarvis</b><br /> Outstanding Senior in Information Technology \u2013 <b>Michele Hindman</b><br /> Outstanding Junior in Computer Engineering - <b>Zachary Simpson</b><br /> Outstanding Junior in Computer Science - <b>Jacob White</b><br /> Outstanding Junior in Information Technology - <b>Matthew Holladay</b><br /> Outstanding Sophomore Student \u2013 <b>Jonathan Roosa</b><br /> Outstanding Freshman Student \u2013 <b>Katie Ouellette</b><br /> Outstanding Teaching Fellow \u2013 <b>Joseph Helsing</b><br /> Outstanding Teaching Assistant \u2013 <b>Jagannadh Vempati</b></p>  <p>These students were recognized at UNT Honors Day on April 1, 2016.</p> <p><a href="http://www.cse.unt.edu/site/node/681">read more</a></p> Sat, 02 Apr 2016 17:02:26 -0500 donr 681 at http://www.cse.unt.edu/site    
p2
t.