(S'http://careerdevelopment.cmht.unt.edu/node/964'
p1
V         ServSafe Manager Certificate | internship.cmht.unt.edu                                       Skip to main content                                 HomeSenior Internship Application CoursePre-Major Work Experience HoursCareer OpportunitiesContact                                 Upload ServSafe Manager Certificate  First Name *    Middle Name *    Last Name *    UNT Student ID *    Email *    Upload ServSafe Manager Certificate *     Certificate Expiration Date *  Year  Year20152016201720182019202020212022202320242025202620272028202920302031203220332034203520362037   Month  MonthJanFebMarAprMayJunJulAugSepOctNovDec   Day  Day12345678910111213141516171819202122232425262728293031                                         Visit Us    [map]         Mail Us  Department of Hospitality & Tourism          Contact Us  Phone:                  
p2
t.