(S'http://hpc.unt.edu/account-request'
p1
V         Talon3 Account Request | UIT High-Performance Computing                         Skip to main content              Quick Links  MyUNT EagleConnect Blackboard People & Departments Maps Calendars Giving to UNT            Search form  Search                         UIT High-Performance Computing           Main menuHomeAboutArticlesSoftwareUser InfoCluster InfoPoliciesHelpAbout UIT          Status message You must login to view this form.      User login   Username *  Enter your UNT EUID   Password *  Enter your password  Request new password           Talon3 Account Request       You must be logged in to see the form below.  Please fill out this form in it's entirety in order to request and HPC account.  NOTE: After a log in attempt, if you get the following error, you have not set your preferred email at https://ams.unt.edu                                Visit Us  GAB 535  225 S. Avenue Denton, TX 76201         Mail Us  University Information Technology  1155 Union Circle #310709  Denton, Texas 76203         Contact Us  hpc-admin@unt.edu              Site last updated on: Feburary 15th, 2016 Disclaimer | AA/EOE/ADA | Privacy  | Web Accessibility | State of Texas Online | Emergency Preparedness | THECB Online Resume System                
p2
t.