(S'http://export2refworks.library.unt.edu/processor_a.php?bib=b'
p1
V     Export to RefWorks - Which version?                                                Which version of RefWorks would you like to export to?     Export to legacy RefWorks  If you recognize the round orange RefWorks logo and have a legacy RefWorks account, select this version to export to. Legacy RefWorks is the version of RefWorks available at most institutions.   OR     Export to the new RefWorks  If you recognize the square blue RefWorks logo and have a new RefWorks account, select this version to export to. The new RefWorks is not yet available at all institutions and yours may not support it.        Don\u2019t ask me this again (you can reset this by clearing your cookies).               
p2
t.