(S'http://blogs.library.unt.edu/unt125/2015/07/06/centennial-unts-entry-in-general-motors-1990-solar-car-race/?share=facebook'
p1
V  Facebook     FacebookLog in to your Facebook account to share.Email or Phone:Password:Forgot account?Create New Account         
p2
t.