(S'http://economics.unt.edu/news/help-center-news'
p1
V               Help Center News | Department of Economics                               Skip to main content     MyUNT Blackboard Find People at UNT View Maps of UNT Give to UNT   Apply online       College of Liberal Arts & Social Sciences Department of Economics                HomeAbout UsContact UsJob OpeningFacultyStaffUndergraduateUndergraduate AdvisingDegree RequirementsEconomics Course ListCourse ScheduleHelp CenterUndergraduate ScholarshipsJob Placement ServicesInternshipsStudent AmbassadorsEcon ClubGraduateGraduate AdvisingDegree RequirementsHow to ApplyFAQsGraduate AssistantshipsGraduate ScholarshipsGraduate Handbook & Success ManualNewsEventsNewsletterSupport UNT EconEconomics Research Group             August 29, 2013 Help Center News             We are now in Wooten Hall 320 for Principles of Microeconomics (1100); Principles of Macroeconomics (1110); and Economic Concepts (5000). We are also in Wooten Hall 311 for Economics of Consumption (3050); Econ of Discrimination (3150); Intermediate Micro (3550); Intermediate Macro (3560); and International Trade (4850). For further information, please read the help center newsletter from Sandra Jeffery, the Supervisor for the Economics Help Center.                   Contact Us                                         (940) 565-2573 Jiyoung.Kwon@unt.edu Visit Us                 Hickory Hall 254 Send Us Mail                 1155 Union Circle #311457                 Denton, Texas 76203-5017                                   Fax: (940) 565-4426                                                                                                                       Follow Us Facebook   College of Liberal Arts & Social Sciences View departments Get advising University of North Texas Explore our degrees Take a tour Get financial aid Apply online Find a person Register for classes Follow UNT on social media         Disclaimer AA/EOE/ADA Privacy Statement Electronic Accessibility State of Texas Online Emergency Preparedness THECB Online Resume System Student Consumer Information UNT Compliance Hotline Governors Committee on People with Disabilities Texas Veterans Portal UNT Home        
p2
t.