(S'http://diningmenus.unt.edu/nutframe.asp?sName=UNT+Food+Department&locationNum=20&locationName=BRUCE&naFlag=1'
p1
V      This Week's Menus    A browser that supports frames is required     A browser that supports frames is required         
p2
t.