(S'http://shib.lynda.com/Shibboleth.sso/InCommon?providerId=https%3A%2F%2Fsso.unt.edu%2Fidp%2Fshibboleth'
p1
V    UNT System Login Service             EUID    Password     Don't Remember Login                Login                                           Learn the latest tools and techniques with access to 1281 online courses and counting! Get unbiased, clear, and comprehensive training in 3D, audio, video, photography, graphic design, web and interactive design, business, and development from expert instructors, 24/7.                                       \u203a Forgot your password? \u203a Need Help?       This system is the property of the University of North Texas System and your use of this resource constitutes an agreement to abide by relevant federal and state laws and institutional policies. Unauthorized use of this system is prohibited. Violations can result in penalties and criminal prosecution. Usage may be subject to security testing and monitoring. Users have no expectation of privacy except as otherwise provided by applicable privacy laws.      
p2
t.